	.file	"main.cpp"
	.intel_syntax noprefix
	.text
.Ltext0:
	.file 1 "main.cpp"
#APP
	.globl _ZSt21ios_base_library_initv
#NO_APP
	.globl	_Z4testm
	.type	_Z4testm, @function
_Z4testm:
.LVL0:
.LFB8478:
	.loc 1 108 1 view -0
	.cfi_startproc
	.loc 1 108 1 is_stmt 0 view .LVU1
	endbr64
	push	rbp
	.cfi_def_cfa_offset 16
	.cfi_offset 6, -16
	mov	rbp, rsp
	.cfi_def_cfa_register 6
	and	rsp, -64
	sub	rsp, 576
	.loc 1 108 1 view .LVU2
	mov	rax, QWORD PTR fs:40
	mov	QWORD PTR 568[rsp], rax
	xor	eax, eax
	.loc 1 109 5 is_stmt 1 view .LVU3
.LVL1:
.LBB61:
.LBI61:
	.loc 1 83 5 view .LVU4
	.loc 1 83 5 is_stmt 0 view .LVU5
.LBE61:
	.loc 1 110 5 is_stmt 1 view .LVU6
.LBB62:
	.loc 1 110 23 discriminator 1 view .LVU7
	.loc 1 112 9 view .LVU8
	.loc 1 112 21 is_stmt 0 view .LVU9
	mov	QWORD PTR [rsp], 0
	.loc 1 113 9 is_stmt 1 view .LVU10
.LVL2:
.LBB63:
.LBI63:
	.loc 1 25 15 view .LVU11
	.loc 1 25 15 is_stmt 0 view .LVU12
.LBE63:
	.loc 1 113 19 discriminator 1 view .LVU13
	mov	QWORD PTR 256[rsp], 1
	.loc 1 110 5 is_stmt 1 discriminator 3 view .LVU14
.LVL3:
	.loc 1 110 23 discriminator 1 view .LVU15
	.loc 1 112 9 view .LVU16
	.loc 1 112 21 is_stmt 0 view .LVU17
	mov	QWORD PTR 8[rsp], 1
	.loc 1 113 9 is_stmt 1 view .LVU18
.LVL4:
.LBB64:
	.loc 1 25 15 view .LVU19
	.loc 1 25 15 is_stmt 0 view .LVU20
.LBE64:
	.loc 1 113 19 discriminator 1 view .LVU21
	mov	QWORD PTR 264[rsp], 1
	.loc 1 110 5 is_stmt 1 discriminator 3 view .LVU22
.LVL5:
	.loc 1 110 23 discriminator 1 view .LVU23
	.loc 1 112 9 view .LVU24
	.loc 1 112 21 is_stmt 0 view .LVU25
	mov	QWORD PTR 16[rsp], 2
	.loc 1 113 9 is_stmt 1 view .LVU26
.LVL6:
.LBB65:
	.loc 1 25 15 view .LVU27
	.loc 1 25 15 is_stmt 0 view .LVU28
.LBE65:
	.loc 1 113 19 discriminator 1 view .LVU29
	mov	QWORD PTR 272[rsp], 1
	.loc 1 110 5 is_stmt 1 discriminator 3 view .LVU30
.LVL7:
	.loc 1 110 23 discriminator 1 view .LVU31
	.loc 1 112 9 view .LVU32
	.loc 1 112 21 is_stmt 0 view .LVU33
	mov	QWORD PTR 24[rsp], 3
	.loc 1 113 9 is_stmt 1 view .LVU34
.LVL8:
.LBB66:
	.loc 1 25 15 view .LVU35
	.loc 1 25 15 is_stmt 0 view .LVU36
.LBE66:
	.loc 1 113 19 discriminator 1 view .LVU37
	mov	QWORD PTR 280[rsp], 1
	.loc 1 110 5 is_stmt 1 discriminator 3 view .LVU38
.LVL9:
	.loc 1 110 23 discriminator 1 view .LVU39
.LBE62:
	.loc 1 115 5 view .LVU40
.LBB67:
.LBI67:
	.loc 1 85 17 view .LVU41
.LBB68:
.LBB69:
.LBI69:
	.file 2 "/usr/lib/gcc/x86_64-linux-gnu/13/include/avxintrin.h"
	.loc 2 1358 1 view .LVU42
.LBB70:
	.loc 2 1360 3 view .LVU43
	.loc 2 1360 3 is_stmt 0 view .LVU44
.LBE70:
.LBE69:
.LBB72:
.LBI72:
	.loc 2 915 1 is_stmt 1 view .LVU45
.LBB73:
	.loc 2 917 3 view .LVU46
	.loc 2 917 3 is_stmt 0 view .LVU47
.LBE73:
.LBE72:
.LBB74:
.LBI74:
	.file 3 "/usr/lib/gcc/x86_64-linux-gnu/13/include/avx2intrin.h"
	.loc 3 252 1 is_stmt 1 view .LVU48
.LBB75:
	.loc 3 254 3 view .LVU49
	.loc 3 254 3 is_stmt 0 view .LVU50
.LBE75:
.LBE74:
.LBB77:
.LBI77:
	.loc 2 915 1 is_stmt 1 view .LVU51
.LBB78:
	.loc 2 917 3 view .LVU52
	.loc 2 917 3 is_stmt 0 view .LVU53
.LBE78:
.LBE77:
.LBB79:
.LBI79:
	.loc 3 252 1 is_stmt 1 view .LVU54
.LBB80:
	.loc 3 254 3 view .LVU55
	.loc 3 254 3 is_stmt 0 view .LVU56
.LBE80:
.LBE79:
.LBB82:
.LBI82:
	.loc 3 179 1 is_stmt 1 view .LVU57
.LBB83:
	.loc 3 181 3 view .LVU58
	.loc 3 181 3 is_stmt 0 view .LVU59
.LBE83:
.LBE82:
.LBB85:
.LBI85:
	.loc 3 207 1 is_stmt 1 view .LVU60
.LBB86:
	.loc 3 209 3 view .LVU61
.LBE86:
.LBE85:
.LBB88:
.LBB71:
	.loc 2 1360 62 is_stmt 0 view .LVU62
	vmovq	xmm2, rdi
	vpbroadcastq	ymm1, xmm2
.LBE71:
.LBE88:
.LBB89:
.LBB76:
	.loc 3 254 10 view .LVU63
	vpcmpeqq	ymm1, ymm1, YMMWORD PTR [rsp]
.LBE76:
.LBE89:
.LBB90:
.LBB81:
	vpbroadcastq	ymm0, QWORD PTR .LC2[rip]
	vpcmpeqq	ymm0, ymm0, YMMWORD PTR 256[rsp]
.LBE81:
.LBE90:
.LBB91:
.LBB84:
	.loc 3 181 33 view .LVU64
	vpand	ymm1, ymm1, ymm0
.LBE84:
.LBE91:
.LBB92:
.LBB87:
	.loc 3 209 47 view .LVU65
	vpxor	xmm0, xmm0, xmm0
	vpcmpgtb	ymm0, ymm0, ymm1
	vpandn	ymm0, ymm0, YMMWORD PTR .LC1[rip]
.LVL10:
	.loc 3 209 47 view .LVU66
.LBE87:
.LBE92:
	.loc 1 103 27 view .LVU67
	vmovq	rdx, xmm0
	vpextrq	rax, xmm0, 1
	.loc 1 103 68 view .LVU68
	lea	rax, -1[rdx+rax]
	vextracti128	xmm0, ymm0, 0x1
.LVL11:
	.loc 1 103 68 view .LVU69
	vmovq	rdx, xmm0
	add	rax, rdx
	vpextrq	rdx, xmm0, 1
	add	rax, rdx
.LBE68:
.LBE67:
	.loc 1 116 1 view .LVU70
	mov	rdx, QWORD PTR 568[rsp]
	sub	rdx, QWORD PTR fs:40
	jne	.L4
	leave
	.cfi_remember_state
	.cfi_def_cfa 7, 8
.LVL12:
	.loc 1 116 1 view .LVU71
	ret
.LVL13:
.L4:
	.cfi_restore_state
	.loc 1 116 1 view .LVU72
	call	__stack_chk_fail@PLT
.LVL14:
	.loc 1 116 1 view .LVU73
	.cfi_endproc
.LFE8478:
	.size	_Z4testm, .-_Z4testm
	.globl	main
	.type	main, @function
main:
.LFB8479:
	.loc 1 119 1 is_stmt 1 view -0
	.cfi_startproc
	endbr64
	push	r13
	.cfi_def_cfa_offset 16
	.cfi_offset 13, -16
	push	r12
	.cfi_def_cfa_offset 24
	.cfi_offset 12, -24
	push	rbp
	.cfi_def_cfa_offset 32
	.cfi_offset 6, -32
	push	rbx
	.cfi_def_cfa_offset 40
	.cfi_offset 3, -40
	sub	rsp, 8
	.cfi_def_cfa_offset 48
	.loc 1 120 5 view .LVU75
.LVL15:
.LBB108:
	.loc 1 120 23 discriminator 1 view .LVU76
.LBE108:
	.loc 1 119 1 is_stmt 0 view .LVU77
	mov	r12d, 0
.LBB134:
.LBB109:
.LBB110:
	.file 4 "/usr/include/c++/13/ostream"
	.loc 4 173 25 view .LVU78
	lea	r13, _ZSt4cout[rip]
	jmp	.L9
.LVL16:
.L13:
	.loc 4 173 25 view .LVU79
.LBE110:
.LBE109:
.LBB112:
.LBB113:
.LBB114:
.LBB115:
.LBB116:
.LBB117:
.LBB118:
	.file 5 "/usr/include/c++/13/bits/basic_ios.h"
	.loc 5 50 18 view .LVU80
	call	_ZSt16__throw_bad_castv@PLT
.LVL17:
.L7:
	.loc 5 50 18 view .LVU81
.LBE118:
.LBE117:
.LBB120:
.LBB121:
	.file 6 "/usr/include/c++/13/bits/locale_facets.h"
	.loc 6 884 2 is_stmt 1 view .LVU82
	.loc 6 884 21 is_stmt 0 view .LVU83
	mov	rdi, rbp
	call	_ZNKSt5ctypeIcE13_M_widen_initEv@PLT
.LVL18:
	.loc 6 885 2 is_stmt 1 view .LVU84
	.loc 6 885 23 is_stmt 0 view .LVU85
	mov	rax, QWORD PTR 0[rbp]
	mov	esi, 10
	mov	rdi, rbp
	call	[QWORD PTR 48[rax]]
.LVL19:
	mov	esi, eax
.L8:
.LVL20:
	.loc 6 885 23 view .LVU86
.LBE121:
.LBE120:
.LBE116:
.LBE115:
	.loc 4 736 19 discriminator 1 view .LVU87
	movsx	esi, sil
	mov	rdi, rbx
	call	_ZNSo3putEc@PLT
.LVL21:
	mov	rdi, rax
.LVL22:
.LBB126:
.LBI126:
	.loc 4 757 5 is_stmt 1 view .LVU88
.LBB127:
	.loc 4 758 24 is_stmt 0 view .LVU89
	call	_ZNSo5flushEv@PLT
.LVL23:
	.loc 4 758 24 view .LVU90
.LBE127:
.LBE126:
.LBE114:
.LBE113:
.LBE112:
	.loc 1 120 5 is_stmt 1 discriminator 3 view .LVU91
	.loc 1 120 23 discriminator 1 view .LVU92
	inc	r12
.LVL24:
	.loc 1 120 23 is_stmt 0 discriminator 1 view .LVU93
	cmp	r12, 4
	je	.L12
.LVL25:
.L9:
	.loc 1 121 9 is_stmt 1 view .LVU94
	.loc 1 121 28 is_stmt 0 view .LVU95
	mov	rdi, r12
	call	_Z4testm
.LVL26:
	mov	rsi, rax
.LVL27:
.LBB132:
.LBI109:
	.loc 4 172 7 is_stmt 1 view .LVU96
.LBB111:
	.loc 4 173 25 is_stmt 0 view .LVU97
	mov	rdi, r13
	call	_ZNSo9_M_insertImEERSoT_@PLT
.LVL28:
	.loc 4 173 25 view .LVU98
	mov	rbx, rax
.LVL29:
	.loc 4 173 25 view .LVU99
.LBE111:
.LBE132:
.LBB133:
.LBI112:
	.loc 4 110 7 is_stmt 1 view .LVU100
.LBB131:
.LBI113:
	.loc 4 735 5 view .LVU101
.LBB130:
.LBB128:
.LBI115:
	.loc 5 449 7 view .LVU102
.LBE128:
	.loc 4 736 39 is_stmt 0 view .LVU103
	mov	rax, QWORD PTR [rax]
.LVL30:
.LBB129:
.LBB125:
	.loc 5 450 30 view .LVU104
	mov	rax, QWORD PTR -24[rax]
.LVL31:
	.loc 5 450 30 view .LVU105
	mov	rbp, QWORD PTR 240[rbx+rax]
.LVL32:
.LBB123:
.LBI117:
	.loc 5 47 5 is_stmt 1 view .LVU106
.LBB119:
	.loc 5 49 7 is_stmt 0 view .LVU107
	test	rbp, rbp
	je	.L13
.LVL33:
	.loc 5 49 7 view .LVU108
.LBE119:
.LBE123:
.LBB124:
.LBI120:
	.loc 6 880 7 is_stmt 1 view .LVU109
.LBB122:
	.loc 6 882 2 view .LVU110
	cmp	BYTE PTR 56[rbp], 0
	je	.L7
	.loc 6 883 4 view .LVU111
	.loc 6 883 51 is_stmt 0 view .LVU112
	movzx	esi, BYTE PTR 67[rbp]
	jmp	.L8
.LVL34:
.L12:
	.loc 6 883 51 view .LVU113
.LBE122:
.LBE124:
.LBE125:
.LBE129:
.LBE130:
.LBE131:
.LBE133:
.LBE134:
	.loc 1 122 1 view .LVU114
	mov	eax, 0
	add	rsp, 8
	.cfi_def_cfa_offset 40
	pop	rbx
	.cfi_def_cfa_offset 32
	pop	rbp
	.cfi_def_cfa_offset 24
	pop	r12
	.cfi_def_cfa_offset 16
.LVL35:
	.loc 1 122 1 view .LVU115
	pop	r13
	.cfi_def_cfa_offset 8
	ret
	.cfi_endproc
.LFE8479:
	.size	main, .-main
	.section	.rodata.cst32,"aM",@progbits,32
	.align 32
.LC1:
	.byte	4
	.byte	0
	.byte	0
	.byte	0
	.byte	0
	.byte	0
	.byte	0
	.byte	0
	.byte	3
	.byte	0
	.byte	0
	.byte	0
	.byte	0
	.byte	0
	.byte	0
	.byte	0
	.byte	2
	.byte	0
	.byte	0
	.byte	0
	.byte	0
	.byte	0
	.byte	0
	.byte	0
	.byte	1
	.byte	0
	.byte	0
	.byte	0
	.byte	0
	.byte	0
	.byte	0
	.byte	0
	.set	.LC2,.LC1+24
	.text
.Letext0:
	.file 7 "/usr/include/c++/13/type_traits"
	.file 8 "/usr/include/c++/13/cstdlib"
	.file 9 "/usr/include/c++/13/bits/std_abs.h"
	.file 10 "/usr/include/c++/13/cwchar"
	.file 11 "/usr/include/c++/13/bits/exception_ptr.h"
	.file 12 "/usr/include/x86_64-linux-gnu/c++/13/bits/c++config.h"
	.file 13 "/usr/include/c++/13/bits/char_traits.h"
	.file 14 "/usr/include/c++/13/clocale"
	.file 15 "/usr/include/c++/13/debug/debug.h"
	.file 16 "/usr/include/c++/13/string_view"
	.file 17 "/usr/include/c++/13/bits/basic_string.h"
	.file 18 "/usr/include/c++/13/cstdio"
	.file 19 "/usr/include/c++/13/cstddef"
	.file 20 "/usr/include/c++/13/system_error"
	.file 21 "/usr/include/c++/13/cwctype"
	.file 22 "/usr/include/c++/13/bits/ostream.tcc"
	.file 23 "/usr/include/c++/13/iosfwd"
	.file 24 "/usr/include/c++/13/iostream"
	.file 25 "/usr/include/c++/13/bits/charconv.h"
	.file 26 "/usr/include/c++/13/bits/predefined_ops.h"
	.file 27 "/usr/lib/gcc/x86_64-linux-gnu/13/include/stddef.h"
	.file 28 "/usr/include/stdlib.h"
	.file 29 "/usr/include/x86_64-linux-gnu/bits/types.h"
	.file 30 "/usr/include/x86_64-linux-gnu/bits/stdlib-float.h"
	.file 31 "/usr/include/x86_64-linux-gnu/bits/stdlib-bsearch.h"
	.file 32 "/usr/include/x86_64-linux-gnu/bits/stdlib.h"
	.file 33 "/usr/include/c++/13/stdlib.h"
	.file 34 "<built-in>"
	.file 35 "/usr/include/x86_64-linux-gnu/bits/types/wint_t.h"
	.file 36 "/usr/include/x86_64-linux-gnu/bits/types/__mbstate_t.h"
	.file 37 "/usr/include/x86_64-linux-gnu/bits/types/mbstate_t.h"
	.file 38 "/usr/include/x86_64-linux-gnu/bits/types/__FILE.h"
	.file 39 "/usr/include/x86_64-linux-gnu/bits/types/struct_FILE.h"
	.file 40 "/usr/include/x86_64-linux-gnu/bits/types/FILE.h"
	.file 41 "/usr/include/wchar.h"
	.file 42 "/usr/include/x86_64-linux-gnu/bits/wchar2.h"
	.file 43 "/usr/include/x86_64-linux-gnu/bits/types/struct_tm.h"
	.file 44 "/usr/include/locale.h"
	.file 45 "/usr/include/x86_64-linux-gnu/bits/types/__fpos_t.h"
	.file 46 "/usr/include/stdio.h"
	.file 47 "/usr/include/x86_64-linux-gnu/bits/stdio2.h"
	.file 48 "/usr/include/x86_64-linux-gnu/bits/stdio.h"
	.file 49 "/usr/include/x86_64-linux-gnu/bits/wctype-wchar.h"
	.file 50 "/usr/include/wctype.h"
	.file 51 "/usr/include/c++/13/bits/memory_resource.h"
	.file 52 "/usr/include/c++/13/bits/functexcept.h"
	.section	.note.GNU-stack,"",@progbits
	.section	.note.gnu.property,"a"
	.align 8
	.long	1f - 0f
	.long	4f - 1f
	.long	5
0:
	.string	"GNU"
1:
	.align 8
	.long	0xc0000002
	.long	3f - 2f
2:
	.long	0x3
3:
	.align 8
4:
